target datalayout = "e-m:e-p270:32:32-p271:32:32-p272:64:64-i64:64-i128:128-f80:128-n8:16:32:64-S128"
target triple = "x86_64-pc-linux-gnu"

%struct.OSSL_HPKE_KEM_INFO = type { i16, ptr, ptr, ptr, i64, i64, i64, i64, i8 }
%struct.PROV_EC_CTX = type { ptr, ptr, ptr, ptr, i32, i32, ptr, i64, ptr, ptr }

@.str.1 = private unnamed_addr constant [50 x i8] c"../openssl/providers/implementations/kem/ec_kem.c\00", align 1
@LABEL_KEM = internal constant [4 x i8] c"KEM\00", align 1
@__func__.derive_secret = private unnamed_addr constant [14 x i8] c"derive_secret\00", align 1
@.str.8 = private unnamed_addr constant [31 x i8] c"Invalid sender auth public key\00", align 1
@.str.10 = private unnamed_addr constant [8 x i8] c"eae_prk\00", align 1
@.str.11 = private unnamed_addr constant [14 x i8] c"shared_secret\00", align 1

; Function Attrs: nounwind uwtable
define internal i32 @dhkem_extract_and_expand(ptr noundef %0, ptr noundef %1, i64 noundef %2, i16 noundef zeroext %3, ptr noundef %4, i64 noundef %5, ptr noundef %6, i64 noundef %7) #0 {
  %9 = alloca i32, align 4
  %10 = alloca ptr, align 8
  %11 = alloca ptr, align 8
  %12 = alloca i64, align 8
  %13 = alloca i16, align 2
  %14 = alloca ptr, align 8
  %15 = alloca i64, align 8
  %16 = alloca ptr, align 8
  %17 = alloca i64, align 8
  %18 = alloca [2 x i8], align 1
  %19 = alloca [64 x i8], align 16
  %20 = alloca i64, align 8
  %21 = alloca i32, align 4
  %22 = alloca i32, align 4
  store ptr %0, ptr %10, align 8, !tbaa !16
  store ptr %1, ptr %11, align 8, !tbaa !10
  store i64 %2, ptr %12, align 8, !tbaa !12
  store i16 %3, ptr %13, align 2, !tbaa !57
  store ptr %4, ptr %14, align 8, !tbaa !10
  store i64 %5, ptr %15, align 8, !tbaa !12
  store ptr %6, ptr %16, align 8, !tbaa !10
  store i64 %7, ptr %17, align 8, !tbaa !12
  call void @llvm.lifetime.start.p0(i64 2, ptr %18) #5
  call void @llvm.lifetime.start.p0(i64 64, ptr %19) #5
  call void @llvm.lifetime.start.p0(i64 8, ptr %20) #5
  %23 = load i64, ptr %12, align 8, !tbaa !12
  store i64 %23, ptr %20, align 8, !tbaa !12
  call void @llvm.lifetime.start.p0(i64 4, ptr %21) #5
  %24 = load i64, ptr %20, align 8, !tbaa !12
  %25 = icmp ugt i64 %24, 64
  br i1 %25, label %26, label %27

26:                                               ; preds = %8
  store i32 0, ptr %9, align 4
  store i32 1, ptr %22, align 4
  br label %64

27:                                               ; preds = %8
  %28 = load i16, ptr %13, align 2, !tbaa !57
  %29 = zext i16 %28 to i32
  %30 = ashr i32 %29, 8
  %31 = and i32 %30, 255
  %32 = trunc i32 %31 to i8
  %33 = getelementptr inbounds [2 x i8], ptr %18, i64 0, i64 0
  store i8 %32, ptr %33, align 1, !tbaa !18
  %34 = load i16, ptr %13, align 2, !tbaa !57
  %35 = zext i16 %34 to i32
  %36 = and i32 %35, 255
  %37 = trunc i32 %36 to i8
  %38 = getelementptr inbounds [2 x i8], ptr %18, i64 0, i64 1
  store i8 %37, ptr %38, align 1, !tbaa !18
  %39 = load ptr, ptr %10, align 8, !tbaa !16
  %40 = getelementptr inbounds [64 x i8], ptr %19, i64 0, i64 0
  %41 = load i64, ptr %20, align 8, !tbaa !12
  %42 = getelementptr inbounds [2 x i8], ptr %18, i64 0, i64 0
  %43 = load ptr, ptr %14, align 8, !tbaa !10
  %44 = load i64, ptr %15, align 8, !tbaa !12
  %45 = call i32 @ossl_hpke_labeled_extract(ptr noundef %39, ptr noundef %40, i64 noundef %41, ptr noundef null, i64 noundef 0, ptr noundef @LABEL_KEM, ptr noundef %42, i64 noundef 2, ptr noundef @.str.10, ptr noundef %43, i64 noundef %44)
  %46 = icmp ne i32 %45, 0
  br i1 %46, label %47, label %58

47:                                               ; preds = %27
  %48 = load ptr, ptr %10, align 8, !tbaa !16
  %49 = load ptr, ptr %11, align 8, !tbaa !10
  %50 = load i64, ptr %12, align 8, !tbaa !12
  %51 = getelementptr inbounds [64 x i8], ptr %19, i64 0, i64 0
  %52 = load i64, ptr %20, align 8, !tbaa !12
  %53 = getelementptr inbounds [2 x i8], ptr %18, i64 0, i64 0
  %54 = load ptr, ptr %16, align 8, !tbaa !10
  %55 = load i64, ptr %17, align 8, !tbaa !12
  %56 = call i32 @ossl_hpke_labeled_expand(ptr noundef %48, ptr noundef %49, i64 noundef %50, ptr noundef %51, i64 noundef %52, ptr noundef @LABEL_KEM, ptr noundef %53, i64 noundef 2, ptr noundef @.str.11, ptr noundef %54, i64 noundef %55)
  %57 = icmp ne i32 %56, 0
  br label %58

58:                                               ; preds = %47, %27
  %59 = phi i1 [ false, %27 ], [ %57, %47 ]
  %60 = zext i1 %59 to i32
  store i32 %60, ptr %21, align 4, !tbaa !14
  %61 = getelementptr inbounds [64 x i8], ptr %19, i64 0, i64 0
  %62 = load i64, ptr %20, align 8, !tbaa !12
  call void @OPENSSL_cleanse(ptr noundef %61, i64 noundef %62)
  %63 = load i32, ptr %21, align 4, !tbaa !14
  store i32 %63, ptr %9, align 4
  store i32 1, ptr %22, align 4
  br label %64

64:                                               ; preds = %58, %26
  call void @llvm.lifetime.end.p0(i64 4, ptr %21) #5
  call void @llvm.lifetime.end.p0(i64 8, ptr %20) #5
  call void @llvm.lifetime.end.p0(i64 64, ptr %19) #5
  call void @llvm.lifetime.end.p0(i64 2, ptr %18) #5
  %65 = load i32, ptr %9, align 4
  ret i32 %65
}

; Function Attrs: nounwind uwtable
define internal i32 @ecpubkey_todata(ptr noundef %0, ptr noundef %1, ptr noundef %2, i64 noundef %3) #0 {
  %5 = alloca ptr, align 8
  %6 = alloca ptr, align 8
  %7 = alloca ptr, align 8
  %8 = alloca i64, align 8
  %9 = alloca ptr, align 8
  %10 = alloca ptr, align 8
  store ptr %0, ptr %5, align 8, !tbaa !3
  store ptr %1, ptr %6, align 8, !tbaa !10
  store ptr %2, ptr %7, align 8, !tbaa !36
  store i64 %3, ptr %8, align 8, !tbaa !12
  call void @llvm.lifetime.start.p0(i64 8, ptr %9) #5
  call void @llvm.lifetime.start.p0(i64 8, ptr %10) #5
  %11 = load ptr, ptr %5, align 8, !tbaa !3
  %12 = call ptr @EC_KEY_get0_group(ptr noundef %11)
  store ptr %12, ptr %10, align 8, !tbaa !29
  %13 = load ptr, ptr %5, align 8, !tbaa !3
  %14 = call ptr @EC_KEY_get0_public_key(ptr noundef %13)
  store ptr %14, ptr %9, align 8, !tbaa !48
  %15 = load ptr, ptr %10, align 8, !tbaa !29
  %16 = load ptr, ptr %9, align 8, !tbaa !48
  %17 = load ptr, ptr %6, align 8, !tbaa !10
  %18 = load i64, ptr %8, align 8, !tbaa !12
  %19 = call i64 @EC_POINT_point2oct(ptr noundef %15, ptr noundef %16, i32 noundef 4, ptr noundef %17, i64 noundef %18, ptr noundef null)
  %20 = load ptr, ptr %7, align 8, !tbaa !36
  store i64 %19, ptr %20, align 8, !tbaa !12
  %21 = load ptr, ptr %7, align 8, !tbaa !36
  %22 = load i64, ptr %21, align 8, !tbaa !12
  %23 = icmp ne i64 %22, 0
  %24 = zext i1 %23 to i32
  call void @llvm.lifetime.end.p0(i64 8, ptr %10) #5
  call void @llvm.lifetime.end.p0(i64 8, ptr %9) #5
  ret i32 %24
}

; Function Attrs: nounwind uwtable
define internal i32 @derive_secret(ptr noundef %0, ptr noundef %1, ptr noundef %2, ptr noundef %3, ptr noundef %4, ptr noundef %5, ptr noundef %6, ptr noundef %7) #0 {
  %9 = alloca ptr, align 8
  %10 = alloca ptr, align 8
  %11 = alloca ptr, align 8
  %12 = alloca ptr, align 8
  %13 = alloca ptr, align 8
  %14 = alloca ptr, align 8
  %15 = alloca ptr, align 8
  %16 = alloca ptr, align 8
  %17 = alloca i32, align 4
  %18 = alloca ptr, align 8
  %19 = alloca [133 x i8], align 16
  %20 = alloca [132 x i8], align 16
  %21 = alloca [399 x i8], align 16
  %22 = alloca i64, align 8
  %23 = alloca i64, align 8
  %24 = alloca i64, align 8
  %25 = alloca ptr, align 8
  %26 = alloca i64, align 8
  %27 = alloca i64, align 8
  %28 = alloca i32, align 4
  store ptr %0, ptr %9, align 8, !tbaa !19
  store ptr %1, ptr %10, align 8, !tbaa !10
  store ptr %2, ptr %11, align 8, !tbaa !3
  store ptr %3, ptr %12, align 8, !tbaa !3
  store ptr %4, ptr %13, align 8, !tbaa !3
  store ptr %5, ptr %14, align 8, !tbaa !3
  store ptr %6, ptr %15, align 8, !tbaa !10
  store ptr %7, ptr %16, align 8, !tbaa !10
  call void @llvm.lifetime.start.p0(i64 4, ptr %17) #5
  store i32 0, ptr %17, align 4, !tbaa !14
  call void @llvm.lifetime.start.p0(i64 8, ptr %18) #5
  store ptr null, ptr %18, align 8, !tbaa !16
  call void @llvm.lifetime.start.p0(i64 133, ptr %19) #5
  call void @llvm.lifetime.start.p0(i64 132, ptr %20) #5
  call void @llvm.lifetime.start.p0(i64 399, ptr %21) #5
  call void @llvm.lifetime.start.p0(i64 8, ptr %22) #5
  call void @llvm.lifetime.start.p0(i64 8, ptr %23) #5
  store i64 0, ptr %23, align 8, !tbaa !12
  call void @llvm.lifetime.start.p0(i64 8, ptr %24) #5
  store i64 0, ptr %24, align 8, !tbaa !12
  call void @llvm.lifetime.start.p0(i64 8, ptr %25) #5
  %29 = load ptr, ptr %9, align 8, !tbaa !19
  %30 = getelementptr inbounds nuw %struct.PROV_EC_CTX, ptr %29, i32 0, i32 9
  %31 = load ptr, ptr %30, align 8, !tbaa !51
  store ptr %31, ptr %25, align 8, !tbaa !19
  call void @llvm.lifetime.start.p0(i64 8, ptr %26) #5
  %32 = load ptr, ptr %25, align 8, !tbaa !19
  %33 = getelementptr inbounds nuw %struct.OSSL_HPKE_KEM_INFO, ptr %32, i32 0, i32 6
  %34 = load i64, ptr %33, align 8, !tbaa !55
  store i64 %34, ptr %26, align 8, !tbaa !12
  call void @llvm.lifetime.start.p0(i64 8, ptr %27) #5
  %35 = load ptr, ptr %25, align 8, !tbaa !19
  %36 = getelementptr inbounds nuw %struct.OSSL_HPKE_KEM_INFO, ptr %35, i32 0, i32 7
  %37 = load i64, ptr %36, align 8, !tbaa !23
  store i64 %37, ptr %27, align 8, !tbaa !12
  call void @llvm.lifetime.start.p0(i64 4, ptr %28) #5
  %38 = load ptr, ptr %9, align 8, !tbaa !19
  %39 = getelementptr inbounds nuw %struct.PROV_EC_CTX, ptr %38, i32 0, i32 1
  %40 = load ptr, ptr %39, align 8, !tbaa !53
  %41 = icmp ne ptr %40, null
  %42 = zext i1 %41 to i32
  store i32 %42, ptr %28, align 4, !tbaa !14
  %43 = load ptr, ptr %11, align 8, !tbaa !3
  %44 = load ptr, ptr %12, align 8, !tbaa !3
  %45 = getelementptr inbounds [132 x i8], ptr %20, i64 0, i64 0
  %46 = load i64, ptr %27, align 8, !tbaa !12
  %47 = trunc i64 %46 to i32
  %48 = call i32 @generate_ecdhkm(ptr noundef %43, ptr noundef %44, ptr noundef %45, i64 noundef 132, i32 noundef %47)
  %49 = icmp ne i32 %48, 0
  br i1 %49, label %51, label %50

50:                                               ; preds = %8
  br label %152

51:                                               ; preds = %8
  %52 = load i64, ptr %27, align 8, !tbaa !12
  store i64 %52, ptr %24, align 8, !tbaa !12
  %53 = load i64, ptr %26, align 8, !tbaa !12
  %54 = mul i64 2, %53
  store i64 %54, ptr %23, align 8, !tbaa !12
  %55 = load i32, ptr %28, align 4, !tbaa !14
  %56 = icmp ne i32 %55, 0
  br i1 %56, label %57, label %90

57:                                               ; preds = %51
  %58 = load ptr, ptr %9, align 8, !tbaa !19
  %59 = getelementptr inbounds nuw %struct.PROV_EC_CTX, ptr %58, i32 0, i32 1
  %60 = load ptr, ptr %59, align 8, !tbaa !53
  %61 = getelementptr inbounds [133 x i8], ptr %19, i64 0, i64 0
  %62 = call i32 @ecpubkey_todata(ptr noundef %60, ptr noundef %61, ptr noundef %22, i64 noundef 133)
  %63 = icmp ne i32 %62, 0
  br i1 %63, label %65, label %64

64:                                               ; preds = %57
  br label %152

65:                                               ; preds = %57
  %66 = load i64, ptr %22, align 8, !tbaa !12
  %67 = load i64, ptr %26, align 8, !tbaa !12
  %68 = icmp ne i64 %66, %67
  br i1 %68, label %69, label %70

69:                                               ; preds = %65
  call void @ERR_new()
  call void @ERR_set_debug(ptr noundef @.str.1, i32 noundef 590, ptr noundef @__func__.derive_secret)
  call void (i32, i32, ptr, ...) @ERR_set_error(i32 noundef 57, i32 noundef 158, ptr noundef @.str.8)
  br label %152

70:                                               ; preds = %65
  %71 = load ptr, ptr %13, align 8, !tbaa !3
  %72 = load ptr, ptr %14, align 8, !tbaa !3
  %73 = getelementptr inbounds [132 x i8], ptr %20, i64 0, i64 0
  %74 = load i64, ptr %24, align 8, !tbaa !12
  %75 = getelementptr inbounds nuw i8, ptr %73, i64 %74
  %76 = load i64, ptr %24, align 8, !tbaa !12
  %77 = sub i64 132, %76
  %78 = load i64, ptr %27, align 8, !tbaa !12
  %79 = trunc i64 %78 to i32
  %80 = call i32 @generate_ecdhkm(ptr noundef %71, ptr noundef %72, ptr noundef %75, i64 noundef %77, i32 noundef %79)
  %81 = icmp ne i32 %80, 0
  br i1 %81, label %83, label %82

82:                                               ; preds = %70
  br label %152

83:                                               ; preds = %70
  %84 = load i64, ptr %27, align 8, !tbaa !12
  %85 = load i64, ptr %24, align 8, !tbaa !12
  %86 = add i64 %85, %84
  store i64 %86, ptr %24, align 8, !tbaa !12
  %87 = load i64, ptr %26, align 8, !tbaa !12
  %88 = load i64, ptr %23, align 8, !tbaa !12
  %89 = add i64 %88, %87
  store i64 %89, ptr %23, align 8, !tbaa !12
  br label %90

90:                                               ; preds = %83, %51
  %91 = load i64, ptr %23, align 8, !tbaa !12
  %92 = icmp ugt i64 %91, 399
  br i1 %92, label %93, label %94

93:                                               ; preds = %90
  br label %152

94:                                               ; preds = %90
  %95 = getelementptr inbounds [399 x i8], ptr %21, i64 0, i64 0
  %96 = load ptr, ptr %15, align 8, !tbaa !10
  %97 = load ptr, ptr %25, align 8, !tbaa !19
  %98 = getelementptr inbounds nuw %struct.OSSL_HPKE_KEM_INFO, ptr %97, i32 0, i32 6
  %99 = load i64, ptr %98, align 8, !tbaa !55
  call void @llvm.memcpy.p0.p0.i64(ptr align 16 %95, ptr align 1 %96, i64 %99, i1 false)
  %100 = getelementptr inbounds [399 x i8], ptr %21, i64 0, i64 0
  %101 = load ptr, ptr %25, align 8, !tbaa !19
  %102 = getelementptr inbounds nuw %struct.OSSL_HPKE_KEM_INFO, ptr %101, i32 0, i32 6
  %103 = load i64, ptr %102, align 8, !tbaa !55
  %104 = getelementptr inbounds nuw i8, ptr %100, i64 %103
  %105 = load ptr, ptr %16, align 8, !tbaa !10
  %106 = load ptr, ptr %25, align 8, !tbaa !19
  %107 = getelementptr inbounds nuw %struct.OSSL_HPKE_KEM_INFO, ptr %106, i32 0, i32 6
  %108 = load i64, ptr %107, align 8, !tbaa !55
  call void @llvm.memcpy.p0.p0.i64(ptr align 1 %104, ptr align 1 %105, i64 %108, i1 false)
  %109 = load i32, ptr %28, align 4, !tbaa !14
  %110 = icmp ne i32 %109, 0
  br i1 %110, label %111, label %118

111:                                              ; preds = %94
  %112 = getelementptr inbounds [399 x i8], ptr %21, i64 0, i64 0
  %113 = load i64, ptr %26, align 8, !tbaa !12
  %114 = mul i64 2, %113
  %115 = getelementptr inbounds nuw i8, ptr %112, i64 %114
  %116 = getelementptr inbounds [133 x i8], ptr %19, i64 0, i64 0
  %117 = load i64, ptr %26, align 8, !tbaa !12
  call void @llvm.memcpy.p0.p0.i64(ptr align 1 %115, ptr align 16 %116, i64 %117, i1 false)
  br label %118

118:                                              ; preds = %111, %94
  %119 = load ptr, ptr %9, align 8, !tbaa !19
  %120 = getelementptr inbounds nuw %struct.PROV_EC_CTX, ptr %119, i32 0, i32 8
  %121 = load ptr, ptr %120, align 8, !tbaa !52
  %122 = load ptr, ptr %25, align 8, !tbaa !19
  %123 = getelementptr inbounds nuw %struct.OSSL_HPKE_KEM_INFO, ptr %122, i32 0, i32 3
  %124 = load ptr, ptr %123, align 8, !tbaa !20
  %125 = load ptr, ptr %9, align 8, !tbaa !19
  %126 = getelementptr inbounds nuw %struct.PROV_EC_CTX, ptr %125, i32 0, i32 2
  %127 = load ptr, ptr %126, align 8, !tbaa !31
  %128 = load ptr, ptr %9, align 8, !tbaa !19
  %129 = getelementptr inbounds nuw %struct.PROV_EC_CTX, ptr %128, i32 0, i32 3
  %130 = load ptr, ptr %129, align 8, !tbaa !56
  %131 = call ptr @ossl_kdf_ctx_create(ptr noundef %121, ptr noundef %124, ptr noundef %127, ptr noundef %130)
  store ptr %131, ptr %18, align 8, !tbaa !16
  %132 = load ptr, ptr %18, align 8, !tbaa !16
  %133 = icmp eq ptr %132, null
  br i1 %133, label %134, label %135

134:                                              ; preds = %118
  br label %152

135:                                              ; preds = %118
  %136 = load ptr, ptr %18, align 8, !tbaa !16
  %137 = load ptr, ptr %10, align 8, !tbaa !10
  %138 = load ptr, ptr %25, align 8, !tbaa !19
  %139 = getelementptr inbounds nuw %struct.OSSL_HPKE_KEM_INFO, ptr %138, i32 0, i32 4
  %140 = load i64, ptr %139, align 8, !tbaa !25
  %141 = load ptr, ptr %25, align 8, !tbaa !19
  %142 = getelementptr inbounds nuw %struct.OSSL_HPKE_KEM_INFO, ptr %141, i32 0, i32 0
  %143 = load i16, ptr %142, align 8, !tbaa !24
  %144 = getelementptr inbounds [132 x i8], ptr %20, i64 0, i64 0
  %145 = load i64, ptr %24, align 8, !tbaa !12
  %146 = getelementptr inbounds [399 x i8], ptr %21, i64 0, i64 0
  %147 = load i64, ptr %23, align 8, !tbaa !12
  %148 = call i32 @dhkem_extract_and_expand(ptr noundef %136, ptr noundef %137, i64 noundef %140, i16 noundef zeroext %143, ptr noundef %144, i64 noundef %145, ptr noundef %146, i64 noundef %147)
  %149 = icmp ne i32 %148, 0
  br i1 %149, label %151, label %150

150:                                              ; preds = %135
  br label %152

151:                                              ; preds = %135
  store i32 1, ptr %17, align 4, !tbaa !14
  br label %152

152:                                              ; preds = %151, %150, %134, %93, %82, %69, %64, %50
  %153 = getelementptr inbounds [132 x i8], ptr %20, i64 0, i64 0
  %154 = load i64, ptr %24, align 8, !tbaa !12
  call void @OPENSSL_cleanse(ptr noundef %153, i64 noundef %154)
  %155 = load ptr, ptr %18, align 8, !tbaa !16
  call void @EVP_KDF_CTX_free(ptr noundef %155)
  %156 = load i32, ptr %17, align 4, !tbaa !14
  call void @llvm.lifetime.end.p0(i64 4, ptr %28) #5
  call void @llvm.lifetime.end.p0(i64 8, ptr %27) #5
  call void @llvm.lifetime.end.p0(i64 8, ptr %26) #5
  call void @llvm.lifetime.end.p0(i64 8, ptr %25) #5
  call void @llvm.lifetime.end.p0(i64 8, ptr %24) #5
  call void @llvm.lifetime.end.p0(i64 8, ptr %23) #5
  call void @llvm.lifetime.end.p0(i64 8, ptr %22) #5
  call void @llvm.lifetime.end.p0(i64 399, ptr %21) #5
  call void @llvm.lifetime.end.p0(i64 132, ptr %20) #5
  call void @llvm.lifetime.end.p0(i64 133, ptr %19) #5
  call void @llvm.lifetime.end.p0(i64 8, ptr %18) #5
  call void @llvm.lifetime.end.p0(i64 4, ptr %17) #5
  ret i32 %156
}