; Function Attrs: nounwind uwtable
define internal fastcc range(i32 0, 2) i32 @derive_secret(ptr noundef readonly captures(none) %0, ptr noundef %1, ptr noundef %2, ptr noundef %3, ptr noundef %4, ptr noundef %5, ptr noundef readonly captures(none) %6, ptr noundef nonnull readonly captures(none) %7) unnamed_addr #0 {
  %9 = alloca [2 x i8], align 1
  %10 = alloca [64 x i8], align 16
  %11 = alloca [133 x i8], align 16
  %12 = alloca [132 x i8], align 16
  %13 = alloca [399 x i8], align 16
  call void @llvm.lifetime.start.p0(i64 133, ptr nonnull %11) #5
  call void @llvm.lifetime.start.p0(i64 132, ptr nonnull %12) #5
  call void @llvm.lifetime.start.p0(i64 399, ptr nonnull %13) #5
  %14 = getelementptr inbounds nuw i8, ptr %0, i64 64
  %15 = load ptr, ptr %14, align 8, !tbaa !24
  %16 = getelementptr inbounds nuw i8, ptr %15, i64 48
  %17 = load i64, ptr %16, align 8, !tbaa !31
  %18 = getelementptr inbounds nuw i8, ptr %15, i64 56
  %19 = load i64, ptr %18, align 8, !tbaa !12
  %20 = getelementptr inbounds nuw i8, ptr %0, i64 8
  %21 = load ptr, ptr %20, align 8, !tbaa !32
  %22 = trunc i64 %19 to i32
  %23 = call fastcc i32 @generate_ecdhkm(ptr noundef %2, ptr noundef %3, ptr noundef %12, i64 noundef 132, i32 noundef %22)
  %.not49 = icmp eq i32 %23, 0
  br i1 %.not49, label %73, label %24

24:                                               ; preds = %8
  %.not = icmp eq ptr %21, null
  %25 = shl i64 %17, 1
  br i1 %.not, label %37, label %26

26:                                               ; preds = %24
  %27 = load ptr, ptr %20, align 8, !tbaa !32
  %28 = call ptr @EC_KEY_get0_group(ptr noundef %27) #5
  %29 = call ptr @EC_KEY_get0_public_key(ptr noundef %27) #5
  %30 = call i64 @EC_POINT_point2oct(ptr noundef %28, ptr noundef %29, i32 noundef 4, ptr noundef nonnull %11, i64 noundef 133, ptr noundef null) #5
  %.not60 = icmp eq i64 %30, 0
  br i1 %.not60, label %73, label %31

31:                                               ; preds = %26
  %.not51 = icmp eq i64 %30, %17
  br i1 %.not51, label %33, label %32

32:                                               ; preds = %31
  call void @ERR_new() #5
  call void @ERR_set_debug(ptr noundef nonnull @.str.1, i32 noundef 590, ptr noundef nonnull @__func__.derive_secret) #5
  call void (i32, i32, ptr, ...) @ERR_set_error(i32 noundef 57, i32 noundef 158, ptr noundef nonnull @.str.8) #5
  br label %73

33:                                               ; preds = %31
  %34 = getelementptr inbounds nuw i8, ptr %12, i64 %19
  %35 = sub i64 132, %19
  %36 = call fastcc i32 @generate_ecdhkm(ptr noundef %4, ptr noundef %5, ptr noundef %34, i64 noundef %35, i32 noundef %22)
  %.not52 = icmp eq i32 %36, 0
  br i1 %.not52, label %73, label %.thread

37:                                               ; preds = %24
  %38 = icmp ugt i64 %25, 399
  br i1 %38, label %73, label %42

.thread:                                          ; preds = %33
  %39 = shl i64 %19, 1
  %40 = mul i64 %17, 3
  %41 = icmp ugt i64 %40, 399
  br i1 %41, label %73, label %45

42:                                               ; preds = %37
  %43 = load i64, ptr %16, align 8, !tbaa !31
  call void @llvm.memcpy.p0.p0.i64(ptr nonnull align 16 %13, ptr align 1 %6, i64 %43, i1 false)
  %44 = getelementptr inbounds nuw i8, ptr %13, i64 %43
  call void @llvm.memcpy.p0.p0.i64(ptr nonnull align 1 %44, ptr nonnull align 1 %7, i64 %43, i1 false)
  br label %49

45:                                               ; preds = %.thread
  %46 = load i64, ptr %16, align 8, !tbaa !31
  call void @llvm.memcpy.p0.p0.i64(ptr nonnull align 16 %13, ptr align 1 %6, i64 %46, i1 false)
  %47 = getelementptr inbounds nuw i8, ptr %13, i64 %46
  call void @llvm.memcpy.p0.p0.i64(ptr nonnull align 1 %47, ptr nonnull align 1 %7, i64 %46, i1 false)
  %48 = getelementptr inbounds nuw i8, ptr %13, i64 %25
  call void @llvm.memcpy.p0.p0.i64(ptr nonnull align 2 %48, ptr nonnull align 16 %11, i64 %17, i1 false)
  br label %49

49:                                               ; preds = %42, %45
  %.16472 = phi i64 [ %39, %45 ], [ %19, %42 ]
  %.0446570 = phi i64 [ %40, %45 ], [ %25, %42 ]
  %50 = getelementptr inbounds nuw i8, ptr %0, i64 56
  %51 = load ptr, ptr %50, align 8, !tbaa !39
  %52 = getelementptr inbounds nuw i8, ptr %15, i64 24
  %53 = load ptr, ptr %52, align 8, !tbaa !6
  %54 = getelementptr inbounds nuw i8, ptr %0, i64 16
  %55 = load ptr, ptr %54, align 8, !tbaa !18
  %56 = getelementptr inbounds nuw i8, ptr %0, i64 24
  %57 = load ptr, ptr %56, align 8, !tbaa !29
  %58 = call ptr @ossl_kdf_ctx_create(ptr noundef %51, ptr noundef %53, ptr noundef %55, ptr noundef %57) #5
  %59 = icmp eq ptr %58, null
  br i1 %59, label %73, label %60

60:                                               ; preds = %49
  %61 = getelementptr inbounds nuw i8, ptr %15, i64 32
  %62 = load i64, ptr %61, align 8, !tbaa !14
  %63 = load i16, ptr %15, align 8, !tbaa !13
  call void @llvm.lifetime.start.p0(i64 2, ptr nonnull %9) #5
  call void @llvm.lifetime.start.p0(i64 64, ptr nonnull %10) #5
  %64 = icmp ugt i64 %62, 64
  br i1 %64, label %.sink.split, label %65

65:                                               ; preds = %60
  %66 = lshr i16 %63, 8
  %67 = trunc nuw i16 %66 to i8
  store i8 %67, ptr %9, align 1, !tbaa !3
  %68 = trunc i16 %63 to i8
  %69 = getelementptr inbounds nuw i8, ptr %9, i64 1
  store i8 %68, ptr %69, align 1, !tbaa !3
  %70 = call i32 @ossl_hpke_labeled_extract(ptr noundef nonnull %58, ptr noundef nonnull %10, i64 noundef %62, ptr noundef null, i64 noundef 0, ptr noundef nonnull @LABEL_KEM, ptr noundef nonnull %9, i64 noundef 2, ptr noundef nonnull @.str.10, ptr noundef nonnull %12, i64 noundef %.16472) #5
  %.not.i = icmp eq i32 %70, 0
  br i1 %.not.i, label %dhkem_extract_and_expand.exit.thread57, label %dhkem_extract_and_expand.exit

dhkem_extract_and_expand.exit.thread57:           ; preds = %65
  call void @OPENSSL_cleanse(ptr noundef nonnull %10, i64 noundef %62) #5
  br label %.sink.split

dhkem_extract_and_expand.exit:                    ; preds = %65
  %71 = call i32 @ossl_hpke_labeled_expand(ptr noundef nonnull %58, ptr noundef %1, i64 noundef %62, ptr noundef nonnull %10, i64 noundef %62, ptr noundef nonnull @LABEL_KEM, ptr noundef nonnull %9, i64 noundef 2, ptr noundef nonnull @.str.11, ptr noundef nonnull %13, i64 noundef range(i64 0, 400) %.0446570) #5
  %.fr = freeze i32 %71
  %.not61 = icmp eq i32 %.fr, 0
  call void @OPENSSL_cleanse(ptr noundef nonnull %10, i64 noundef %62) #5
  call void @llvm.lifetime.end.p0(i64 64, ptr nonnull %10) #5
  call void @llvm.lifetime.end.p0(i64 2, ptr nonnull %9) #5
  br i1 %.not61, label %72, label %73

.sink.split:                                      ; preds = %60, %dhkem_extract_and_expand.exit.thread57
  call void @llvm.lifetime.end.p0(i64 64, ptr nonnull %10) #5
  call void @llvm.lifetime.end.p0(i64 2, ptr nonnull %9) #5
  br label %72

72:                                               ; preds = %.sink.split, %dhkem_extract_and_expand.exit
  br label %73

73:                                               ; preds = %.thread, %72, %dhkem_extract_and_expand.exit, %49, %37, %33, %26, %8, %32
  %.045 = phi i64 [ %19, %32 ], [ %19, %37 ], [ %.16472, %49 ], [ %19, %33 ], [ %19, %26 ], [ 0, %8 ], [ %.16472, %dhkem_extract_and_expand.exit ], [ %.16472, %72 ], [ %39, %.thread ]
  %.043 = phi ptr [ null, %32 ], [ null, %37 ], [ null, %49 ], [ null, %33 ], [ null, %26 ], [ null, %8 ], [ %58, %dhkem_extract_and_expand.exit ], [ %58, %72 ], [ null, %.thread ]
  %.0 = phi i32 [ 0, %32 ], [ 0, %37 ], [ 0, %49 ], [ 0, %33 ], [ 0, %26 ], [ 0, %8 ], [ 1, %dhkem_extract_and_expand.exit ], [ 0, %72 ], [ 0, %.thread ]
  call void @OPENSSL_cleanse(ptr noundef nonnull %12, i64 noundef %.045) #5
  call void @EVP_KDF_CTX_free(ptr noundef %.043) #5
  call void @llvm.lifetime.end.p0(i64 399, ptr nonnull %13) #5
  call void @llvm.lifetime.end.p0(i64 132, ptr nonnull %12) #5
  call void @llvm.lifetime.end.p0(i64 133, ptr nonnull %11) #5
  ret i32 %.0
}